	.cpu arm7tdmi
	.fpu softvfp
	.eabi_attribute 20, 1
	.eabi_attribute 21, 1
	.eabi_attribute 23, 3
	.eabi_attribute 24, 1
	.eabi_attribute 25, 1
	.eabi_attribute 26, 1
	.eabi_attribute 30, 6
	.eabi_attribute 34, 0
	.eabi_attribute 18, 4
	.arm
	.syntax divided
	.file	"fibcall.c"
	.text
.Ltext0:
	.cfi_sections	.debug_frame
	.align	2
	.global	__aeabi_idiv
	.type	__aeabi_idiv, %function
__aeabi_idiv:
.LFB0:
	.file 1 "./ARMlib.h"
	.loc 1 29 0
	.cfi_startproc
	@ Function supports interworking.
	@ args = 0, pretend = 0, frame = 0
	@ frame_needed = 0, uses_anonymous_args = 0
	@ link register save eliminated.
	.loc 1 29 0
	mov	r0, r0	@ nop
	bx	lr
	.cfi_endproc
.LFE0:
	.size	__aeabi_idiv, .-__aeabi_idiv
	.align	2
	.global	__aeabi_i2d
	.type	__aeabi_i2d, %function
__aeabi_i2d:
.LFB1:
	.loc 1 30 0
	.cfi_startproc
	@ Function supports interworking.
	@ args = 0, pretend = 0, frame = 0
	@ frame_needed = 0, uses_anonymous_args = 0
	@ link register save eliminated.
	.loc 1 30 0
	mov	r0, r0	@ nop
	bx	lr
	.cfi_endproc
.LFE1:
	.size	__aeabi_i2d, .-__aeabi_i2d
	.align	2
	.global	__aeabi_uidivmod
	.type	__aeabi_uidivmod, %function
__aeabi_uidivmod:
.LFB2:
	.loc 1 31 0
	.cfi_startproc
	@ Function supports interworking.
	@ args = 0, pretend = 0, frame = 0
	@ frame_needed = 0, uses_anonymous_args = 0
	@ link register save eliminated.
	.loc 1 31 0
	mov	r0, r0	@ nop
	bx	lr
	.cfi_endproc
.LFE2:
	.size	__aeabi_uidivmod, .-__aeabi_uidivmod
	.align	2
	.global	__aeabi_fcmpge
	.type	__aeabi_fcmpge, %function
__aeabi_fcmpge:
.LFB3:
	.loc 1 32 0
	.cfi_startproc
	@ Function supports interworking.
	@ args = 0, pretend = 0, frame = 0
	@ frame_needed = 0, uses_anonymous_args = 0
	@ link register save eliminated.
	.loc 1 32 0
	mov	r0, r0	@ nop
	bx	lr
	.cfi_endproc
.LFE3:
	.size	__aeabi_fcmpge, .-__aeabi_fcmpge
	.align	2
	.global	__aeabi_i2f
	.type	__aeabi_i2f, %function
__aeabi_i2f:
.LFB4:
	.loc 1 33 0
	.cfi_startproc
	@ Function supports interworking.
	@ args = 0, pretend = 0, frame = 0
	@ frame_needed = 0, uses_anonymous_args = 0
	@ link register save eliminated.
	.loc 1 33 0
	mov	r0, r0	@ nop
	bx	lr
	.cfi_endproc
.LFE4:
	.size	__aeabi_i2f, .-__aeabi_i2f
	.align	2
	.global	__aeabi_ddiv
	.type	__aeabi_ddiv, %function
__aeabi_ddiv:
.LFB5:
	.loc 1 37 0
	.cfi_startproc
	@ Function supports interworking.
	@ args = 0, pretend = 0, frame = 0
	@ frame_needed = 0, uses_anonymous_args = 0
	@ link register save eliminated.
	.loc 1 37 0
	mov	r0, r0	@ nop
	bx	lr
	.cfi_endproc
.LFE5:
	.size	__aeabi_ddiv, .-__aeabi_ddiv
	.align	2
	.global	__aeabi_dsub
	.type	__aeabi_dsub, %function
__aeabi_dsub:
.LFB6:
	.loc 1 38 0
	.cfi_startproc
	@ Function supports interworking.
	@ args = 0, pretend = 0, frame = 0
	@ frame_needed = 0, uses_anonymous_args = 0
	@ link register save eliminated.
	.loc 1 38 0
	mov	r0, r0	@ nop
	bx	lr
	.cfi_endproc
.LFE6:
	.size	__aeabi_dsub, .-__aeabi_dsub
	.align	2
	.global	__aeabi_dmul
	.type	__aeabi_dmul, %function
__aeabi_dmul:
.LFB7:
	.loc 1 39 0
	.cfi_startproc
	@ Function supports interworking.
	@ args = 0, pretend = 0, frame = 0
	@ frame_needed = 0, uses_anonymous_args = 0
	@ link register save eliminated.
	.loc 1 39 0
	mov	r0, r0	@ nop
	bx	lr
	.cfi_endproc
.LFE7:
	.size	__aeabi_dmul, .-__aeabi_dmul
	.align	2
	.global	__aeabi_dcmpge
	.type	__aeabi_dcmpge, %function
__aeabi_dcmpge:
.LFB8:
	.loc 1 40 0
	.cfi_startproc
	@ Function supports interworking.
	@ args = 0, pretend = 0, frame = 0
	@ frame_needed = 0, uses_anonymous_args = 0
	@ link register save eliminated.
	.loc 1 40 0
	mov	r0, r0	@ nop
	bx	lr
	.cfi_endproc
.LFE8:
	.size	__aeabi_dcmpge, .-__aeabi_dcmpge
	.align	2
	.global	__aeabi_dcmpeq
	.type	__aeabi_dcmpeq, %function
__aeabi_dcmpeq:
.LFB9:
	.loc 1 41 0
	.cfi_startproc
	@ Function supports interworking.
	@ args = 0, pretend = 0, frame = 0
	@ frame_needed = 0, uses_anonymous_args = 0
	@ link register save eliminated.
	.loc 1 41 0
	mov	r0, r0	@ nop
	bx	lr
	.cfi_endproc
.LFE9:
	.size	__aeabi_dcmpeq, .-__aeabi_dcmpeq
	.align	2
	.global	__aeabi_dcmpgt
	.type	__aeabi_dcmpgt, %function
__aeabi_dcmpgt:
.LFB10:
	.loc 1 42 0
	.cfi_startproc
	@ Function supports interworking.
	@ args = 0, pretend = 0, frame = 0
	@ frame_needed = 0, uses_anonymous_args = 0
	@ link register save eliminated.
	.loc 1 42 0
	mov	r0, r0	@ nop
	bx	lr
	.cfi_endproc
.LFE10:
	.size	__aeabi_dcmpgt, .-__aeabi_dcmpgt
	.align	2
	.global	__aeabi_dcmple
	.type	__aeabi_dcmple, %function
__aeabi_dcmple:
.LFB11:
	.loc 1 43 0
	.cfi_startproc
	@ Function supports interworking.
	@ args = 0, pretend = 0, frame = 0
	@ frame_needed = 0, uses_anonymous_args = 0
	@ link register save eliminated.
	.loc 1 43 0
	mov	r0, r0	@ nop
	bx	lr
	.cfi_endproc
.LFE11:
	.size	__aeabi_dcmple, .-__aeabi_dcmple
	.align	2
	.global	__aeabi_d2f
	.type	__aeabi_d2f, %function
__aeabi_d2f:
.LFB12:
	.loc 1 44 0
	.cfi_startproc
	@ Function supports interworking.
	@ args = 0, pretend = 0, frame = 0
	@ frame_needed = 0, uses_anonymous_args = 0
	@ link register save eliminated.
	.loc 1 44 0
	mov	r0, r0	@ nop
	bx	lr
	.cfi_endproc
.LFE12:
	.size	__aeabi_d2f, .-__aeabi_d2f
	.align	2
	.global	__aeabi_dadd
	.type	__aeabi_dadd, %function
__aeabi_dadd:
.LFB13:
	.loc 1 45 0
	.cfi_startproc
	@ Function supports interworking.
	@ args = 0, pretend = 0, frame = 0
	@ frame_needed = 0, uses_anonymous_args = 0
	@ link register save eliminated.
	.loc 1 45 0
	mov	r0, r0	@ nop
	bx	lr
	.cfi_endproc
.LFE13:
	.size	__aeabi_dadd, .-__aeabi_dadd
	.align	2
	.global	__aeabi_d2iz
	.type	__aeabi_d2iz, %function
__aeabi_d2iz:
.LFB14:
	.loc 1 46 0
	.cfi_startproc
	@ Function supports interworking.
	@ args = 0, pretend = 0, frame = 0
	@ frame_needed = 0, uses_anonymous_args = 0
	@ link register save eliminated.
	.loc 1 46 0
	mov	r0, r0	@ nop
	bx	lr
	.cfi_endproc
.LFE14:
	.size	__aeabi_d2iz, .-__aeabi_d2iz
	.align	2
	.global	__aeabi_fcmplt
	.type	__aeabi_fcmplt, %function
__aeabi_fcmplt:
.LFB15:
	.loc 1 49 0
	.cfi_startproc
	@ Function supports interworking.
	@ args = 0, pretend = 0, frame = 0
	@ frame_needed = 0, uses_anonymous_args = 0
	@ link register save eliminated.
	.loc 1 49 0
	mov	r0, r0	@ nop
	bx	lr
	.cfi_endproc
.LFE15:
	.size	__aeabi_fcmplt, .-__aeabi_fcmplt
	.align	2
	.global	__aeabi_fcmpgt
	.type	__aeabi_fcmpgt, %function
__aeabi_fcmpgt:
.LFB16:
	.loc 1 50 0
	.cfi_startproc
	@ Function supports interworking.
	@ args = 0, pretend = 0, frame = 0
	@ frame_needed = 0, uses_anonymous_args = 0
	@ link register save eliminated.
	.loc 1 50 0
	mov	r0, r0	@ nop
	bx	lr
	.cfi_endproc
.LFE16:
	.size	__aeabi_fcmpgt, .-__aeabi_fcmpgt
	.align	2
	.global	__aeabi_fdiv
	.type	__aeabi_fdiv, %function
__aeabi_fdiv:
.LFB17:
	.loc 1 51 0
	.cfi_startproc
	@ Function supports interworking.
	@ args = 0, pretend = 0, frame = 0
	@ frame_needed = 0, uses_anonymous_args = 0
	@ link register save eliminated.
	.loc 1 51 0
	mov	r0, r0	@ nop
	bx	lr
	.cfi_endproc
.LFE17:
	.size	__aeabi_fdiv, .-__aeabi_fdiv
	.align	2
	.global	__aeabi_fcmpeq
	.type	__aeabi_fcmpeq, %function
__aeabi_fcmpeq:
.LFB18:
	.loc 1 52 0
	.cfi_startproc
	@ Function supports interworking.
	@ args = 0, pretend = 0, frame = 0
	@ frame_needed = 0, uses_anonymous_args = 0
	@ link register save eliminated.
	.loc 1 52 0
	mov	r0, r0	@ nop
	bx	lr
	.cfi_endproc
.LFE18:
	.size	__aeabi_fcmpeq, .-__aeabi_fcmpeq
	.align	2
	.global	__aeabi_fmul
	.type	__aeabi_fmul, %function
__aeabi_fmul:
.LFB19:
	.loc 1 53 0
	.cfi_startproc
	@ Function supports interworking.
	@ args = 0, pretend = 0, frame = 0
	@ frame_needed = 0, uses_anonymous_args = 0
	@ link register save eliminated.
	.loc 1 53 0
	mov	r0, r0	@ nop
	bx	lr
	.cfi_endproc
.LFE19:
	.size	__aeabi_fmul, .-__aeabi_fmul
	.align	2
	.global	__aeabi_fsub
	.type	__aeabi_fsub, %function
__aeabi_fsub:
.LFB20:
	.loc 1 54 0
	.cfi_startproc
	@ Function supports interworking.
	@ args = 0, pretend = 0, frame = 0
	@ frame_needed = 0, uses_anonymous_args = 0
	@ link register save eliminated.
	.loc 1 54 0
	mov	r0, r0	@ nop
	bx	lr
	.cfi_endproc
.LFE20:
	.size	__aeabi_fsub, .-__aeabi_fsub
	.align	2
	.global	__aeabi_f2d
	.type	__aeabi_f2d, %function
__aeabi_f2d:
.LFB21:
	.loc 1 55 0
	.cfi_startproc
	@ Function supports interworking.
	@ args = 0, pretend = 0, frame = 0
	@ frame_needed = 0, uses_anonymous_args = 0
	@ link register save eliminated.
	.loc 1 55 0
	mov	r0, r0	@ nop
	bx	lr
	.cfi_endproc
.LFE21:
	.size	__aeabi_f2d, .-__aeabi_f2d
	.align	2
	.global	__aeabi_fadd
	.type	__aeabi_fadd, %function
__aeabi_fadd:
.LFB22:
	.loc 1 56 0
	.cfi_startproc
	@ Function supports interworking.
	@ args = 0, pretend = 0, frame = 0
	@ frame_needed = 0, uses_anonymous_args = 0
	@ link register save eliminated.
	.loc 1 56 0
	mov	r0, r0	@ nop
	bx	lr
	.cfi_endproc
.LFE22:
	.size	__aeabi_fadd, .-__aeabi_fadd
	.align	2
	.global	__aeabi_ui2
	.type	__aeabi_ui2, %function
__aeabi_ui2:
.LFB23:
	.loc 1 59 0
	.cfi_startproc
	@ Function supports interworking.
	@ args = 0, pretend = 0, frame = 0
	@ frame_needed = 0, uses_anonymous_args = 0
	@ link register save eliminated.
	.loc 1 59 0
	mov	r0, r0	@ nop
	bx	lr
	.cfi_endproc
.LFE23:
	.size	__aeabi_ui2, .-__aeabi_ui2
	.align	2
	.global	__aeabi_ui2d
	.type	__aeabi_ui2d, %function
__aeabi_ui2d:
.LFB24:
	.loc 1 60 0
	.cfi_startproc
	@ Function supports interworking.
	@ args = 0, pretend = 0, frame = 0
	@ frame_needed = 0, uses_anonymous_args = 0
	@ link register save eliminated.
	.loc 1 60 0
	mov	r0, r0	@ nop
	bx	lr
	.cfi_endproc
.LFE24:
	.size	__aeabi_ui2d, .-__aeabi_ui2d
	.align	2
	.global	__aeabi_dcmpun
	.type	__aeabi_dcmpun, %function
__aeabi_dcmpun:
.LFB25:
	.loc 1 62 0
	.cfi_startproc
	@ Function supports interworking.
	@ args = 0, pretend = 0, frame = 0
	@ frame_needed = 0, uses_anonymous_args = 0
	@ link register save eliminated.
	.loc 1 62 0
	mov	r0, r0	@ nop
	bx	lr
	.cfi_endproc
.LFE25:
	.size	__aeabi_dcmpun, .-__aeabi_dcmpun
	.align	2
	.global	__aeabi_dcmplt
	.type	__aeabi_dcmplt, %function
__aeabi_dcmplt:
.LFB26:
	.loc 1 63 0
	.cfi_startproc
	@ Function supports interworking.
	@ args = 0, pretend = 0, frame = 0
	@ frame_needed = 0, uses_anonymous_args = 0
	@ link register save eliminated.
	.loc 1 63 0
	mov	r0, r0	@ nop
	bx	lr
	.cfi_endproc
.LFE26:
	.size	__aeabi_dcmplt, .-__aeabi_dcmplt
	.align	2
	.global	fib
	.type	fib, %function
fib:
.LFB27:
	.file 2 "fibcall.c"
	.loc 2 56 0
	.cfi_startproc
	@ Function supports interworking.
	@ args = 0, pretend = 0, frame = 32
	@ frame_needed = 0, uses_anonymous_args = 0
	@ link register save eliminated.
	sub	sp, sp, #32
	.cfi_def_cfa_offset 32
	str	r0, [sp, #4]
	.loc 2 59 0
	mov	r3, #1
	str	r3, [sp, #24]
	.loc 2 60 0
	mov	r3, #0
	str	r3, [sp, #20]
	.loc 2 61 0
	mov	r3, #2
	str	r3, [sp, #28]
	b	.L29
.L31:
	.loc 2 64 0
	.syntax divided
@ 64 "fibcall.c" 1
	1:
        .section .wcet_annot
        .long 1b
        .long 1
        .long 29
                        .text
@ 0 "" 2
	.loc 2 65 0
	.arm
	.syntax divided
	ldr	r3, [sp, #24]
	str	r3, [sp, #16]
	.loc 2 66 0
	ldr	r2, [sp, #24]
	ldr	r3, [sp, #20]
	add	r3, r2, r3
	str	r3, [sp, #24]
	.loc 2 67 0
	ldr	r3, [sp, #16]
	str	r3, [sp, #20]
	.loc 2 63 0
	ldr	r3, [sp, #28]
	add	r3, r3, #1
	str	r3, [sp, #28]
.L29:
	.loc 2 61 0 discriminator 1
	ldr	r3, [sp, #28]
	cmp	r3, #30
	bgt	.L30
	.loc 2 62 0
	ldr	r2, [sp, #28]
	ldr	r3, [sp, #4]
	cmp	r2, r3
	ble	.L31
.L30:
	.loc 2 69 0
	ldr	r3, [sp, #24]
	str	r3, [sp, #12]
	.loc 2 70 0
	ldr	r3, [sp, #12]
	.loc 2 71 0
	mov	r0, r3
	add	sp, sp, #32
	.cfi_def_cfa_offset 0
	@ sp needed
	bx	lr
	.cfi_endproc
.LFE27:
	.size	fib, .-fib
	.align	2
	.global	main
	.type	main, %function
main:
.LFB28:
	.loc 2 75 0
	.cfi_startproc
	@ Function supports interworking.
	@ args = 0, pretend = 0, frame = 8
	@ frame_needed = 0, uses_anonymous_args = 0
	str	lr, [sp, #-4]!
	.cfi_def_cfa_offset 4
	.cfi_offset 14, -4
	sub	sp, sp, #12
	.cfi_def_cfa_offset 16
	.loc 2 78 0
	mov	r3, #30
	str	r3, [sp, #4]
	.loc 2 79 0
	ldr	r0, [sp, #4]
	bl	fib
	.loc 2 80 0
	ldr	r3, [sp, #4]
	.loc 2 81 0
	mov	r0, r3
	add	sp, sp, #12
	.cfi_def_cfa_offset 4
	@ sp needed
	ldr	lr, [sp], #4
	.cfi_restore 14
	.cfi_def_cfa_offset 0
	bx	lr
	.cfi_endproc
.LFE28:
	.size	main, .-main
.Letext0: